Certificate:
    Data:
        Version: 3 (0x2)
        Serial Number: 1 (0x1)
        Signature Algorithm: sha1WithRSAEncryption
        Issuer: C=CN, ST=HUBEI, L=WUHAN, O=cas, OU=cas, CN=*.cas.org
        Validity
            Not Before: Aug 31 14:34:17 2013 GMT
            Not After : Aug 29 14:34:17 2023 GMT
        Subject: C=CN, ST=HUBEI, O=cas, OU=cas, CN=cas
        Subject Public Key Info:
            Public Key Algorithm: rsaEncryption
            RSA Public Key: (2048 bit)
                Modulus (2048 bit):
                    00:bc:c8:88:69:47:32:fb:24:28:b4:19:08:bc:29:
                    5d:de:6e:2e:fe:62:49:7c:49:95:ce:53:c6:9a:43:
                    ee:b7:b3:2c:9b:ff:3f:ee:34:45:ed:48:bc:c0:02:
                    ad:d1:f8:87:61:3a:4c:d6:49:83:76:02:1f:e5:dc:
                    03:d8:c3:85:9c:4b:f9:2d:f0:ac:5d:1d:6e:5e:cb:
                    d6:ec:d1:13:15:42:7b:3e:98:21:4e:53:99:a7:9a:
                    32:12:a7:29:cb:8f:a9:e9:b6:43:1b:6e:e3:d3:03:
                    c6:da:aa:62:e1:b4:83:b7:29:fb:3e:c1:b8:c9:e8:
                    ff:43:5d:55:18:5f:51:86:90:5d:07:57:0d:8c:8d:
                    5c:e5:6e:2b:28:ea:02:a0:cd:27:1d:48:d0:8f:95:
                    b9:4c:12:fd:ed:c2:f4:f2:53:cd:33:18:08:41:c6:
                    84:92:c5:ab:e6:6a:39:4c:69:4d:61:c2:ba:94:f4:
                    07:2d:37:ca:f5:c3:92:29:4d:c1:75:d9:da:6c:e3:
                    63:b0:61:62:88:58:51:3f:0a:40:05:ea:35:f3:b8:
                    90:b8:fd:c7:69:34:0e:ad:11:fc:d6:72:c1:4a:00:
                    32:7e:f9:65:c2:fe:9a:a1:75:f4:f3:b1:e0:82:bc:
                    13:b2:8f:50:9a:0a:77:8c:e4:7a:8c:49:ce:6d:b9:
                    98:19
                Exponent: 65537 (0x10001)
        X509v3 extensions:
            X509v3 Basic Constraints: 
                CA:FALSE
            Netscape Comment: 
                OpenSSL Generated Certificate
            X509v3 Subject Key Identifier: 
                E2:AB:79:05:FA:49:39:EE:57:7E:32:F9:1B:A3:18:55:52:F6:CE:B1
            X509v3 Authority Key Identifier: 
                DirName:/C=CN/ST=HUBEI/L=WUHAN/O=cas/OU=cas/CN=*.cas.org
                serial:F1:42:C8:BB:B7:6C:EB:06

    Signature Algorithm: sha1WithRSAEncryption
        34:df:b2:4f:97:39:b5:8e:84:56:e4:55:c4:88:54:0a:84:3a:
        d6:ce:a9:84:cb:ab:c0:0e:6d:9e:a9:06:5b:a4:cc:e0:2b:b8:
        a0:fe:6b:41:08:85:8c:e5:a8:7b:9f:2c:a4:bd:b3:a1:0e:b9:
        0d:80:85:31:01:a1:65:1d:a0:ec:c5:8a:0f:5a:f5:13:b0:e5:
        5e:c4:6e:8e:dc:82:cc:96:69:e3:95:cb:01:f6:9d:f3:cc:48:
        79:5a:ed:88:51:2a:d4:44:06:be:b3:22:30:89:f4:7a:bb:20:
        08:27:ed:37:90:b8:f6:16:28:47:3e:f0:12:3a:36:9c:4e:a5:
        41:4f:1c:da:4f:e0:3d:6f:c3:4e:9e:f0:05:be:b4:7f:4a:2a:
        09:f1:f3:83:70:da:4a:81:fe:d4:5e:10:c9:0b:ec:d8:c7:5d:
        9f:97:33:d5:02:33:76:69:62:03:9b:a7:7e:79:6b:46:03:89:
        fc:ce:d5:af:fa:b2:ff:fb:ff:f1:cf:5d:16:96:af:84:48:bb:
        61:90:4a:2f:ff:ab:2f:ab:0f:af:54:8d:29:83:d6:eb:44:ee:
        9e:a2:80:d3:2b:32:87:6d:12:72:60:ca:e6:15:3d:2b:52:ca:
        8d:f1:d2:9d:20:e6:c4:28:d7:ea:bf:98:d5:4e:9d:8c:6a:c4:
        a4:f4:9f:1d
-----BEGIN CERTIFICATE-----
MIID9DCCAtygAwIBAgIBATANBgkqhkiG9w0BAQUFADBdMQswCQYDVQQGEwJDTjEO
MAwGA1UECBMFSFVCRUkxDjAMBgNVBAcTBVdVSEFOMQwwCgYDVQQKEwNjYXMxDDAK
BgNVBAsTA2NhczESMBAGA1UEAxQJKi5jYXMub3JnMB4XDTEzMDgzMTE0MzQxN1oX
DTIzMDgyOTE0MzQxN1owRzELMAkGA1UEBhMCQ04xDjAMBgNVBAgTBUhVQkVJMQww
CgYDVQQKEwNjYXMxDDAKBgNVBAsTA2NhczEMMAoGA1UEAxMDY2FzMIIBIjANBgkq
hkiG9w0BAQEFAAOCAQ8AMIIBCgKCAQEAvMiIaUcy+yQotBkIvCld3m4u/mJJfEmV
zlPGmkPut7Msm/8/7jRF7Ui8wAKt0fiHYTpM1kmDdgIf5dwD2MOFnEv5LfCsXR1u
XsvW7NETFUJ7PpghTlOZp5oyEqcpy4+p6bZDG27j0wPG2qpi4bSDtyn7PsG4yej/
Q11VGF9RhpBdB1cNjI1c5W4rKOoCoM0nHUjQj5W5TBL97cL08lPNMxgIQcaEksWr
5mo5TGlNYcK6lPQHLTfK9cOSKU3BddnabONjsGFiiFhRPwpABeo187iQuP3HaTQO
rRH81nLBSgAyfvllwv6aoXX087HggrwTso9Qmgp3jOR6jEnObbmYGQIDAQABo4HU
MIHRMAkGA1UdEwQCMAAwLAYJYIZIAYb4QgENBB8WHU9wZW5TU0wgR2VuZXJhdGVk
IENlcnRpZmljYXRlMB0GA1UdDgQWBBTiq3kF+kk57ld+MvkboxhVUvbOsTB3BgNV
HSMEcDBuoWGkXzBdMQswCQYDVQQGEwJDTjEOMAwGA1UECBMFSFVCRUkxDjAMBgNV
BAcTBVdVSEFOMQwwCgYDVQQKEwNjYXMxDDAKBgNVBAsTA2NhczESMBAGA1UEAxQJ
Ki5jYXMub3JnggkA8ULIu7ds6wYwDQYJKoZIhvcNAQEFBQADggEBADTfsk+XObWO
hFbkVcSIVAqEOtbOqYTLq8AObZ6pBlukzOAruKD+a0EIhYzlqHufLKS9s6EOuQ2A
hTEBoWUdoOzFig9a9ROw5V7Ebo7cgsyWaeOVywH2nfPMSHla7YhRKtREBr6zIjCJ
9Hq7IAgn7TeQuPYWKEc+8BI6NpxOpUFPHNpP4D1vw06e8AW+tH9KKgnx84Nw2kqB
/tReEMkL7NjHXZ+XM9UCM3ZpYgObp355a0YDifzO1a/6sv/7//HPXRaWr4RIu2GQ
Si//qy+rD69UjSmD1utE7p6igNMrModtEnJgyuYVPStSyo3x0p0g5sQo1+q/mNVO
nYxqxKT0nx0=
-----END CERTIFICATE-----
